target datalayout = "e-m:e-p270:32:32-p271:32:32-p272:64:64-i64:64-i128:128-f80:128-n8:16:32:64-S128"
target triple = "x86_64-pc-linux-gnu"

%union.pthread_mutex_t = type { %struct.__pthread_mutex_s }
%struct.__pthread_mutex_s = type { i32, i32, i32, i32, i32, i16, i16, %struct.__pthread_internal_list }
%struct.__pthread_internal_list = type { ptr, ptr }
%union.pthread_cond_t = type { %struct.__pthread_cond_s }
%struct.__pthread_cond_s = type { %union.__atomic_wide_counter, %union.__atomic_wide_counter, [2 x i32], [2 x i32], i32, i32, [2 x i32] }
%union.__atomic_wide_counter = type { i64 }

@lock = internal global %union.pthread_mutex_t zeroinitializer, align 8
@.str = private unnamed_addr constant [29 x i8] c"%s: pthread_mutex_lock(): %m\00", align 1
@running_flag = internal global i8 0, align 1
@.str.1 = private unnamed_addr constant [31 x i8] c"%s: pthread_mutex_unlock(): %m\00", align 1
@program_name = internal global ptr null, align 8
@tid = internal global i64 0, align 8
@__func__.step_terminate_monitor_stop = private unnamed_addr constant [28 x i8] c"step_terminate_monitor_stop\00", align 1
@.str.7 = private unnamed_addr constant [20 x i8] c"%s: already stopped\00", align 1
@.str.8 = private unnamed_addr constant [20 x i8] c"signaling condition\00", align 1
@cond = internal global %union.pthread_cond_t zeroinitializer, align 8
@.str.9 = private unnamed_addr constant [36 x i8] c"%s:%d %s: pthread_cond_signal(): %m\00", align 1
@.str.10 = private unnamed_addr constant [25 x i8] c"step_terminate_monitor.c\00", align 1
@.str.11 = private unnamed_addr constant [23 x i8] c"%s: pthread_join(): %m\00", align 1

; Function Attrs: nounwind uwtable
define dso_local void @step_terminate_monitor_stop() #0 {
  %1 = alloca i32, align 4
  %2 = alloca i32, align 4
  %3 = alloca i32, align 4
  %4 = alloca i32, align 4
  %5 = alloca i32, align 4
  br label %6

6:                                                ; preds = %0
  call void @llvm.lifetime.start.p0(i64 4, ptr %1) #7
  %7 = call i32 @pthread_mutex_lock(ptr noundef @lock) #7
  store i32 %7, ptr %1, align 4
  %8 = load i32, ptr %1, align 4
  %9 = icmp ne i32 %8, 0
  br i1 %9, label %10, label %13

10:                                               ; preds = %6
  %11 = load i32, ptr %1, align 4
  %12 = call ptr @__errno_location() #8
  store i32 %11, ptr %12, align 4
  call void (ptr, ...) @fatal_abort(ptr noundef @.str, ptr noundef @__func__.step_terminate_monitor_stop) #9
  unreachable

13:                                               ; preds = %6
  call void @llvm.lifetime.end.p0(i64 4, ptr %1) #7
  br label %14

14:                                               ; preds = %13
  %15 = load i8, ptr @running_flag, align 1, !range !8, !noundef !9
  %16 = trunc i8 %15 to i1
  br i1 %16, label %28, label %17

17:                                               ; preds = %14
  %18 = call i32 (ptr, ...) @error(ptr noundef @.str.7, ptr noundef @__func__.step_terminate_monitor_stop)
  br label %19

19:                                               ; preds = %17
  call void @llvm.lifetime.start.p0(i64 4, ptr %2) #7
  %20 = call i32 @pthread_mutex_unlock(ptr noundef @lock) #7
  store i32 %20, ptr %2, align 4
  %21 = load i32, ptr %2, align 4
  %22 = icmp ne i32 %21, 0
  br i1 %22, label %23, label %26

23:                                               ; preds = %19
  %24 = load i32, ptr %2, align 4
  %25 = call ptr @__errno_location() #8
  store i32 %24, ptr %25, align 4
  call void (ptr, ...) @fatal_abort(ptr noundef @.str.1, ptr noundef @__func__.step_terminate_monitor_stop) #9
  unreachable

26:                                               ; preds = %19
  call void @llvm.lifetime.end.p0(i64 4, ptr %2) #7
  br label %27

27:                                               ; preds = %26
  br label %71

28:                                               ; preds = %14
  store i8 0, ptr @running_flag, align 1
  br label %29

29:                                               ; preds = %28
  br label %30

30:                                               ; preds = %29
  %31 = call i32 @get_log_level()
  %32 = icmp sge i32 %31, 5
  br i1 %32, label %33, label %34

33:                                               ; preds = %30
  call void (i32, ptr, ...) @log_var(i32 noundef 5, ptr noundef @.str.8)
  br label %34

34:                                               ; preds = %33, %30
  br label %35

35:                                               ; preds = %34
  br label %36

36:                                               ; preds = %35
  br label %37

37:                                               ; preds = %36
  call void @llvm.lifetime.start.p0(i64 4, ptr %3) #7
  %38 = call i32 @pthread_cond_signal(ptr noundef @cond) #7
  store i32 %38, ptr %3, align 4
  %39 = load i32, ptr %3, align 4
  %40 = icmp ne i32 %39, 0
  br i1 %40, label %41, label %45

41:                                               ; preds = %37
  %42 = load i32, ptr %3, align 4
  %43 = call ptr @__errno_location() #8
  store i32 %42, ptr %43, align 4
  %44 = call i32 (ptr, ...) @error(ptr noundef @.str.9, ptr noundef @.str.10, i32 noundef 94, ptr noundef @__func__.step_terminate_monitor_stop)
  br label %45

45:                                               ; preds = %41, %37
  call void @llvm.lifetime.end.p0(i64 4, ptr %3) #7
  br label %46

46:                                               ; preds = %45
  br label %47

47:                                               ; preds = %46
  call void @llvm.lifetime.start.p0(i64 4, ptr %4) #7
  %48 = call i32 @pthread_mutex_unlock(ptr noundef @lock) #7
  store i32 %48, ptr %4, align 4
  %49 = load i32, ptr %4, align 4
  %50 = icmp ne i32 %49, 0
  br i1 %50, label %51, label %54

51:                                               ; preds = %47
  %52 = load i32, ptr %4, align 4
  %53 = call ptr @__errno_location() #8
  store i32 %52, ptr %53, align 4
  call void (ptr, ...) @fatal_abort(ptr noundef @.str.1, ptr noundef @__func__.step_terminate_monitor_stop) #9
  unreachable

54:                                               ; preds = %47
  call void @llvm.lifetime.end.p0(i64 4, ptr %4) #7
  br label %55

55:                                               ; preds = %54
  br label %56

56:                                               ; preds = %55
  call void @llvm.lifetime.start.p0(i64 4, ptr %5) #7
  store i32 0, ptr %5, align 4
  %57 = load i64, ptr @tid, align 8
  %58 = icmp ne i64 %57, 0
  br i1 %58, label %59, label %62

59:                                               ; preds = %56
  %60 = load i64, ptr @tid, align 8
  %61 = call i32 @pthread_join(i64 noundef %60, ptr noundef null)
  store i32 %61, ptr %5, align 4
  store i64 0, ptr @tid, align 8
  br label %62

62:                                               ; preds = %59, %56
  %63 = load i32, ptr %5, align 4
  %64 = icmp ne i32 %63, 0
  br i1 %64, label %65, label %69

65:                                               ; preds = %62
  %66 = load i32, ptr %5, align 4
  %67 = call ptr @__errno_location() #8
  store i32 %66, ptr %67, align 4
  %68 = call i32 (ptr, ...) @error(ptr noundef @.str.11, ptr noundef @__func__.step_terminate_monitor_stop)
  br label %69

69:                                               ; preds = %65, %62
  call void @llvm.lifetime.end.p0(i64 4, ptr %5) #7
  br label %70

70:                                               ; preds = %69
  call void @slurm_xfree(ptr noundef @program_name)
  br label %71

71:                                               ; preds = %70, %27
  ret void
}