; Function Attrs: nounwind uwtable
define dso_local void @step_terminate_monitor_stop() local_unnamed_addr #0 {
  %1 = tail call i32 @pthread_mutex_lock(ptr noundef nonnull @lock) #7
  %.not = icmp eq i32 %1, 0
  br i1 %.not, label %4, label %2

2:                                                ; preds = %0
  %3 = tail call ptr @__errno_location() #8
  store i32 %1, ptr %3, align 4
  tail call void (ptr, ...) @fatal_abort(ptr noundef nonnull @.str, ptr noundef nonnull @__func__.step_terminate_monitor_stop) #9
  unreachable

4:                                                ; preds = %0
  %.b15 = load i1, ptr @running_flag, align 1
  br i1 %.b15, label %10, label %5

5:                                                ; preds = %4
  %6 = tail call i32 (ptr, ...) @error(ptr noundef nonnull @.str.7, ptr noundef nonnull @__func__.step_terminate_monitor_stop) #7
  %7 = tail call i32 @pthread_mutex_unlock(ptr noundef nonnull @lock) #7
  %.not16 = icmp eq i32 %7, 0
  br i1 %.not16, label %30, label %8

8:                                                ; preds = %5
  %9 = tail call ptr @__errno_location() #8
  store i32 %7, ptr %9, align 4
  tail call void (ptr, ...) @fatal_abort(ptr noundef nonnull @.str.1, ptr noundef nonnull @__func__.step_terminate_monitor_stop) #9
  unreachable

10:                                               ; preds = %4
  store i1 false, ptr @running_flag, align 1
  %11 = tail call i32 @get_log_level() #7
  %12 = icmp sgt i32 %11, 4
  br i1 %12, label %13, label %14

13:                                               ; preds = %10
  tail call void (i32, ptr, ...) @log_var(i32 noundef 5, ptr noundef nonnull @.str.8) #7
  br label %14

14:                                               ; preds = %10, %13
  %15 = tail call i32 @pthread_cond_signal(ptr noundef nonnull @cond) #7
  %.not17 = icmp eq i32 %15, 0
  br i1 %.not17, label %19, label %16

16:                                               ; preds = %14
  %17 = tail call ptr @__errno_location() #8
  store i32 %15, ptr %17, align 4
  %18 = tail call i32 (ptr, ...) @error(ptr noundef nonnull @.str.9, ptr noundef nonnull @.str.10, i32 noundef 94, ptr noundef nonnull @__func__.step_terminate_monitor_stop) #7
  br label %19

19:                                               ; preds = %16, %14
  %20 = tail call i32 @pthread_mutex_unlock(ptr noundef nonnull @lock) #7
  %.not18 = icmp eq i32 %20, 0
  br i1 %.not18, label %23, label %21

21:                                               ; preds = %19
  %22 = tail call ptr @__errno_location() #8
  store i32 %20, ptr %22, align 4
  tail call void (ptr, ...) @fatal_abort(ptr noundef nonnull @.str.1, ptr noundef nonnull @__func__.step_terminate_monitor_stop) #9
  unreachable

23:                                               ; preds = %19
  %24 = load i64, ptr @tid, align 8
  %.not19 = icmp eq i64 %24, 0
  br i1 %.not19, label %.thread, label %25

25:                                               ; preds = %23
  %26 = tail call i32 @pthread_join(i64 noundef %24, ptr noundef null) #7
  store i64 0, ptr @tid, align 8
  %.not20 = icmp eq i32 %26, 0
  br i1 %.not20, label %.thread, label %27

27:                                               ; preds = %25
  %28 = tail call ptr @__errno_location() #8
  store i32 %26, ptr %28, align 4
  %29 = tail call i32 (ptr, ...) @error(ptr noundef nonnull @.str.11, ptr noundef nonnull @__func__.step_terminate_monitor_stop) #7
  br label %.thread

.thread:                                          ; preds = %23, %27, %25
  tail call void @slurm_xfree(ptr noundef nonnull @program_name) #7
  br label %30

30:                                               ; preds = %5, %.thread
  ret void
}